target datalayout = "e-m:e-p270:32:32-p271:32:32-p272:64:64-i64:64-i128:128-f80:128-n8:16:32:64-S128"
target triple = "x86_64-unknown-linux-gnu"

; Function Attrs: nounwind uwtable
define internal void @asn1_put_length(ptr noundef %pp, i32 noundef %length) #0 {
entry:
  %pp.addr = alloca ptr, align 8
  %length.addr = alloca i32, align 4
  %p = alloca ptr, align 8
  %i = alloca i32, align 4
  %l = alloca i32, align 4
  store ptr %pp, ptr %pp.addr, align 8
  store i32 %length, ptr %length.addr, align 4
  %0 = load ptr, ptr %pp.addr, align 8
  %1 = load ptr, ptr %0, align 8
  store ptr %1, ptr %p, align 8
  %2 = load i32, ptr %length.addr, align 4
  %cmp = icmp sle i32 %2, 127
  br i1 %cmp, label %if.then, label %if.else

if.then:                                          ; preds = %entry
  %3 = load i32, ptr %length.addr, align 4
  %conv = trunc i32 %3 to i8
  %4 = load ptr, ptr %p, align 8
  %incdec.ptr = getelementptr inbounds i8, ptr %4, i32 1
  store ptr %incdec.ptr, ptr %p, align 8
  store i8 %conv, ptr %4, align 1
  br label %if.end

if.else:                                          ; preds = %entry
  %5 = load i32, ptr %length.addr, align 4
  store i32 %5, ptr %l, align 4
  store i32 0, ptr %i, align 4
  br label %for.cond

for.cond:                                         ; preds = %for.inc, %if.else
  %6 = load i32, ptr %l, align 4
  %cmp1 = icmp sgt i32 %6, 0
  br i1 %cmp1, label %for.body, label %for.end

for.body:                                         ; preds = %for.cond
  %7 = load i32, ptr %l, align 4
  %shr = ashr i32 %7, 8
  store i32 %shr, ptr %l, align 4
  br label %for.inc

for.inc:                                          ; preds = %for.body
  %8 = load i32, ptr %i, align 4
  %inc = add nsw i32 %8, 1
  store i32 %inc, ptr %i, align 4
  br label %for.cond, !llvm.loop !12

for.end:                                          ; preds = %for.cond
  %9 = load i32, ptr %i, align 4
  %or = or i32 %9, 128
  %conv3 = trunc i32 %or to i8
  %10 = load ptr, ptr %p, align 8
  %incdec.ptr4 = getelementptr inbounds i8, ptr %10, i32 1
  store ptr %incdec.ptr4, ptr %p, align 8
  store i8 %conv3, ptr %10, align 1
  %11 = load i32, ptr %i, align 4
  store i32 %11, ptr %l, align 4
  br label %while.cond

while.cond:                                       ; preds = %while.body, %for.end
  %12 = load i32, ptr %i, align 4
  %dec = add nsw i32 %12, -1
  store i32 %dec, ptr %i, align 4
  %cmp5 = icmp sgt i32 %12, 0
  br i1 %cmp5, label %while.body, label %while.end

while.body:                                       ; preds = %while.cond
  %13 = load i32, ptr %length.addr, align 4
  %and = and i32 %13, 255
  %conv7 = trunc i32 %and to i8
  %14 = load ptr, ptr %p, align 8
  %15 = load i32, ptr %i, align 4
  %idxprom = sext i32 %15 to i64
  %arrayidx = getelementptr inbounds i8, ptr %14, i64 %idxprom
  store i8 %conv7, ptr %arrayidx, align 1
  %16 = load i32, ptr %length.addr, align 4
  %shr8 = ashr i32 %16, 8
  store i32 %shr8, ptr %length.addr, align 4
  br label %while.cond, !llvm.loop !13

while.end:                                        ; preds = %while.cond
  %17 = load i32, ptr %l, align 4
  %18 = load ptr, ptr %p, align 8
  %idx.ext = sext i32 %17 to i64
  %add.ptr = getelementptr inbounds i8, ptr %18, i64 %idx.ext
  store ptr %add.ptr, ptr %p, align 8
  br label %if.end

if.end:                                           ; preds = %while.end, %if.then
  %19 = load ptr, ptr %p, align 8
  %20 = load ptr, ptr %pp.addr, align 8
  store ptr %19, ptr %20, align 8
  ret void
}

; Function Attrs: nounwind uwtable
define hidden void @ASN1_put_object(ptr noundef %pp, i32 noundef %constructed, i32 noundef %length, i32 noundef %tag, i32 noundef %xclass) #0 {
entry:
  %pp.addr = alloca ptr, align 8
  %constructed.addr = alloca i32, align 4
  %length.addr = alloca i32, align 4
  %tag.addr = alloca i32, align 4
  %xclass.addr = alloca i32, align 4
  %p = alloca ptr, align 8
  %i = alloca i32, align 4
  %ttag = alloca i32, align 4
  store ptr %pp, ptr %pp.addr, align 8
  store i32 %constructed, ptr %constructed.addr, align 4
  store i32 %length, ptr %length.addr, align 4
  store i32 %tag, ptr %tag.addr, align 4
  store i32 %xclass, ptr %xclass.addr, align 4
  %0 = load ptr, ptr %pp.addr, align 8
  %1 = load ptr, ptr %0, align 8
  store ptr %1, ptr %p, align 8
  %2 = load i32, ptr %constructed.addr, align 4
  %tobool = icmp ne i32 %2, 0
  %cond = select i1 %tobool, i32 32, i32 0
  store i32 %cond, ptr %i, align 4
  %3 = load i32, ptr %xclass.addr, align 4
  %and = and i32 %3, 192
  %4 = load i32, ptr %i, align 4
  %or = or i32 %4, %and
  store i32 %or, ptr %i, align 4
  %5 = load i32, ptr %tag.addr, align 4
  %cmp = icmp slt i32 %5, 31
  br i1 %cmp, label %if.then, label %if.else

if.then:                                          ; preds = %entry
  %6 = load i32, ptr %i, align 4
  %7 = load i32, ptr %tag.addr, align 4
  %and1 = and i32 %7, 31
  %or2 = or i32 %6, %and1
  %conv = trunc i32 %or2 to i8
  %8 = load ptr, ptr %p, align 8
  %incdec.ptr = getelementptr inbounds i8, ptr %8, i32 1
  store ptr %incdec.ptr, ptr %p, align 8
  store i8 %conv, ptr %8, align 1
  br label %if.end21

if.else:                                          ; preds = %entry
  %9 = load i32, ptr %i, align 4
  %or3 = or i32 %9, 31
  %conv4 = trunc i32 %or3 to i8
  %10 = load ptr, ptr %p, align 8
  %incdec.ptr5 = getelementptr inbounds i8, ptr %10, i32 1
  store ptr %incdec.ptr5, ptr %p, align 8
  store i8 %conv4, ptr %10, align 1
  store i32 0, ptr %i, align 4
  %11 = load i32, ptr %tag.addr, align 4
  store i32 %11, ptr %ttag, align 4
  br label %for.cond

for.cond:                                         ; preds = %for.inc, %if.else
  %12 = load i32, ptr %ttag, align 4
  %cmp6 = icmp sgt i32 %12, 0
  br i1 %cmp6, label %for.body, label %for.end

for.body:                                         ; preds = %for.cond
  %13 = load i32, ptr %ttag, align 4
  %shr = ashr i32 %13, 7
  store i32 %shr, ptr %ttag, align 4
  br label %for.inc

for.inc:                                          ; preds = %for.body
  %14 = load i32, ptr %i, align 4
  %inc = add nsw i32 %14, 1
  store i32 %inc, ptr %i, align 4
  br label %for.cond, !llvm.loop !10

for.end:                                          ; preds = %for.cond
  %15 = load i32, ptr %i, align 4
  store i32 %15, ptr %ttag, align 4
  br label %while.cond

while.cond:                                       ; preds = %if.end, %for.end
  %16 = load i32, ptr %i, align 4
  %dec = add nsw i32 %16, -1
  store i32 %dec, ptr %i, align 4
  %cmp8 = icmp sgt i32 %16, 0
  br i1 %cmp8, label %while.body, label %while.end

while.body:                                       ; preds = %while.cond
  %17 = load i32, ptr %tag.addr, align 4
  %and10 = and i32 %17, 127
  %conv11 = trunc i32 %and10 to i8
  %18 = load ptr, ptr %p, align 8
  %19 = load i32, ptr %i, align 4
  %idxprom = sext i32 %19 to i64
  %arrayidx = getelementptr inbounds i8, ptr %18, i64 %idxprom
  store i8 %conv11, ptr %arrayidx, align 1
  %20 = load i32, ptr %i, align 4
  %21 = load i32, ptr %ttag, align 4
  %sub = sub nsw i32 %21, 1
  %cmp12 = icmp ne i32 %20, %sub
  br i1 %cmp12, label %if.then14, label %if.end

if.then14:                                        ; preds = %while.body
  %22 = load ptr, ptr %p, align 8
  %23 = load i32, ptr %i, align 4
  %idxprom15 = sext i32 %23 to i64
  %arrayidx16 = getelementptr inbounds i8, ptr %22, i64 %idxprom15
  %24 = load i8, ptr %arrayidx16, align 1
  %conv17 = zext i8 %24 to i32
  %or18 = or i32 %conv17, 128
  %conv19 = trunc i32 %or18 to i8
  store i8 %conv19, ptr %arrayidx16, align 1
  br label %if.end

if.end:                                           ; preds = %if.then14, %while.body
  %25 = load i32, ptr %tag.addr, align 4
  %shr20 = ashr i32 %25, 7
  store i32 %shr20, ptr %tag.addr, align 4
  br label %while.cond, !llvm.loop !11

while.end:                                        ; preds = %while.cond
  %26 = load i32, ptr %ttag, align 4
  %27 = load ptr, ptr %p, align 8
  %idx.ext = sext i32 %26 to i64
  %add.ptr = getelementptr inbounds i8, ptr %27, i64 %idx.ext
  store ptr %add.ptr, ptr %p, align 8
  br label %if.end21

if.end21:                                         ; preds = %while.end, %if.then
  %28 = load i32, ptr %constructed.addr, align 4
  %cmp22 = icmp eq i32 %28, 2
  br i1 %cmp22, label %if.then24, label %if.else26

if.then24:                                        ; preds = %if.end21
  %29 = load ptr, ptr %p, align 8
  %incdec.ptr25 = getelementptr inbounds i8, ptr %29, i32 1
  store ptr %incdec.ptr25, ptr %p, align 8
  store i8 -128, ptr %29, align 1
  br label %if.end27

if.else26:                                        ; preds = %if.end21
  %30 = load i32, ptr %length.addr, align 4
  call void @asn1_put_length(ptr noundef %p, i32 noundef %30)
  br label %if.end27

if.end27:                                         ; preds = %if.else26, %if.then24
  %31 = load ptr, ptr %p, align 8
  %32 = load ptr, ptr %pp.addr, align 8
  store ptr %31, ptr %32, align 8
  ret void
}