; Function Attrs: nofree norecurse nosync nounwind memory(write, argmem: readwrite, inaccessiblemem: none) uwtable
define hidden void @ASN1_put_object(ptr noundef captures(none) %pp, i32 noundef %constructed, i32 noundef %length, i32 noundef %tag, i32 noundef %xclass) local_unnamed_addr #3 {
entry:
  %0 = load ptr, ptr %pp, align 8
  %tobool.not = icmp eq i32 %constructed, 0
  %cond = select i1 %tobool.not, i32 0, i32 32
  %and = and i32 %xclass, 192
  %or = or disjoint i32 %and, %cond
  %cmp = icmp slt i32 %tag, 31
  br i1 %cmp, label %if.then, label %if.else

if.then:                                          ; preds = %entry
  %and1 = and i32 %tag, 31
  %or2 = or disjoint i32 %or, %and1
  %conv = trunc nuw i32 %or2 to i8
  %incdec.ptr = getelementptr inbounds nuw i8, ptr %0, i64 1
  store i8 %conv, ptr %0, align 1
  br label %if.end21

if.else:                                          ; preds = %entry
  %1 = trunc nuw i32 %or to i8
  %conv4 = or disjoint i8 %1, 31
  store i8 %conv4, ptr %0, align 1
  br label %for.body

while.cond.preheader:                             ; preds = %for.body
  %incdec.ptr5 = getelementptr inbounds nuw i8, ptr %0, i64 1
  br label %while.body

for.body:                                         ; preds = %if.else, %for.body
  %indvars.iv = phi i64 [ 0, %if.else ], [ %indvars.iv.next, %for.body ]
  %ttag.024 = phi i32 [ %tag, %if.else ], [ %shr, %for.body ]
  %i.023 = phi i32 [ 0, %if.else ], [ %inc, %for.body ]
  %shr = lshr i32 %ttag.024, 7
  %inc = add nuw nsw i32 %i.023, 1
  %cmp6.not = icmp ult i32 %ttag.024, 128
  %indvars.iv.next = add nuw nsw i64 %indvars.iv, 1
  br i1 %cmp6.not, label %while.cond.preheader, label %for.body, !llvm.loop !10

while.body:                                       ; preds = %while.cond.preheader, %while.body
  %indvars.iv29 = phi i64 [ %indvars.iv, %while.cond.preheader ], [ %indvars.iv.next30, %while.body ]
  %i.127 = phi i32 [ %inc, %while.cond.preheader ], [ %3, %while.body ]
  %tag.addr.026 = phi i32 [ %tag, %while.cond.preheader ], [ %shr20, %while.body ]
  %2 = trunc i32 %tag.addr.026 to i8
  %conv11 = and i8 %2, 127
  %arrayidx = getelementptr inbounds nuw i8, ptr %incdec.ptr5, i64 %indvars.iv29
  %cmp12.not = icmp eq i32 %i.127, %inc
  %masksel = select i1 %cmp12.not, i8 0, i8 -128
  %spec.select = or disjoint i8 %conv11, %masksel
  store i8 %spec.select, ptr %arrayidx, align 1
  %shr20 = lshr i32 %tag.addr.026, 7
  %indvars.iv.next30 = add nsw i64 %indvars.iv29, -1
  %cmp8 = icmp sgt i64 %indvars.iv29, 0
  %3 = trunc nuw nsw i64 %indvars.iv29 to i32
  br i1 %cmp8, label %while.body, label %while.end, !llvm.loop !11

while.end:                                        ; preds = %while.body
  %idx.ext = zext nneg i32 %inc to i64
  %add.ptr = getelementptr inbounds nuw i8, ptr %incdec.ptr5, i64 %idx.ext
  br label %if.end21

if.end21:                                         ; preds = %while.end, %if.then
  %p.0 = phi ptr [ %incdec.ptr, %if.then ], [ %add.ptr, %while.end ]
  %cmp22 = icmp eq i32 %constructed, 2
  br i1 %cmp22, label %if.then24, label %if.else26

if.then24:                                        ; preds = %if.end21
  %incdec.ptr25 = getelementptr inbounds nuw i8, ptr %p.0, i64 1
  store i8 -128, ptr %p.0, align 1
  br label %if.end27

if.else26:                                        ; preds = %if.end21
  %cmp.i = icmp slt i32 %length, 128
  br i1 %cmp.i, label %if.then.i, label %for.body.i

if.then.i:                                        ; preds = %if.else26
  %conv.i = trunc i32 %length to i8
  %incdec.ptr.i = getelementptr inbounds nuw i8, ptr %p.0, i64 1
  store i8 %conv.i, ptr %p.0, align 1
  br label %if.end27

for.body.i:                                       ; preds = %if.else26, %for.body.i
  %indvars.iv.i = phi i64 [ %indvars.iv.next.i, %for.body.i ], [ 1, %if.else26 ]
  %l.017.i = phi i32 [ %shr.i, %for.body.i ], [ %length, %if.else26 ]
  %i.016.i = phi i32 [ %inc.i, %for.body.i ], [ 0, %if.else26 ]
  %shr.i = lshr i32 %l.017.i, 8
  %inc.i = add nuw nsw i32 %i.016.i, 1
  %cmp1.not.i = icmp samesign ult i32 %l.017.i, 256
  %indvars.iv.next.i = add nuw nsw i64 %indvars.iv.i, 1
  br i1 %cmp1.not.i, label %for.end.i, label %for.body.i, !llvm.loop !12

for.end.i:                                        ; preds = %for.body.i
  %4 = trunc i32 %inc.i to i8
  %conv3.i = or i8 %4, -128
  store i8 %conv3.i, ptr %p.0, align 1
  br label %while.body.i

while.body.i:                                     ; preds = %while.body.i, %for.end.i
  %indvars.iv20.i = phi i64 [ %indvars.iv.i, %for.end.i ], [ %indvars.iv.next21.i, %while.body.i ]
  %length.addr.018.i = phi i32 [ %length, %for.end.i ], [ %shr8.i, %while.body.i ]
  %indvars.iv.next21.i = add nsw i64 %indvars.iv20.i, -1
  %conv7.i = trunc i32 %length.addr.018.i to i8
  %arrayidx.i = getelementptr i8, ptr %p.0, i64 %indvars.iv20.i
  store i8 %conv7.i, ptr %arrayidx.i, align 1
  %shr8.i = lshr i32 %length.addr.018.i, 8
  %cmp5.i = icmp sgt i64 %indvars.iv20.i, 1
  br i1 %cmp5.i, label %while.body.i, label %while.end.i, !llvm.loop !13

while.end.i:                                      ; preds = %while.body.i
  %incdec.ptr4.i = getelementptr inbounds nuw i8, ptr %p.0, i64 1
  %idx.ext.i = zext nneg i32 %inc.i to i64
  %add.ptr.i = getelementptr inbounds nuw i8, ptr %incdec.ptr4.i, i64 %idx.ext.i
  br label %if.end27

if.end27:                                         ; preds = %while.end.i, %if.then.i, %if.then24
  %p.1 = phi ptr [ %incdec.ptr25, %if.then24 ], [ %incdec.ptr.i, %if.then.i ], [ %add.ptr.i, %while.end.i ]
  store ptr %p.1, ptr %pp, align 8
  ret void
}